; Function Attrs: mustprogress uwtable
define void @_ZN6icu_7713DecimalFormat23adoptCurrencyPluralInfoEPNS_18CurrencyPluralInfoE(ptr noundef nonnull align 8 dereferenceable(72) %0, ptr noundef %1) unnamed_addr #1 align 2 personality ptr @__gxx_personality_v0 {
  %3 = alloca i32, align 4
  %4 = getelementptr inbounds nuw i8, ptr %0, i64 64
  %5 = load ptr, ptr %4, align 8, !tbaa !25
  %6 = icmp eq ptr %5, null
  br i1 %6, label %15, label %7

7:                                                ; preds = %2
  %8 = getelementptr inbounds nuw i8, ptr %5, i64 56
  %9 = load ptr, ptr %8, align 8, !tbaa !109
  %10 = icmp eq ptr %9, null
  br i1 %10, label %_ZN6icu_7712LocalPointerINS_18CurrencyPluralInfoEE12adoptInsteadEPS1_.exit, label %11

11:                                               ; preds = %7
  %12 = load ptr, ptr %9, align 8, !tbaa !18
  %13 = getelementptr inbounds nuw i8, ptr %12, i64 8
  %14 = load ptr, ptr %13, align 8
  tail call void %14(ptr noundef nonnull align 8 dereferenceable(36) %9) #19
  br label %_ZN6icu_7712LocalPointerINS_18CurrencyPluralInfoEE12adoptInsteadEPS1_.exit

_ZN6icu_7712LocalPointerINS_18CurrencyPluralInfoEE12adoptInsteadEPS1_.exit: ; preds = %7, %11
  store ptr %1, ptr %8, align 8, !tbaa !109
  call void @llvm.lifetime.start.p0(i64 4, ptr nonnull %3) #19
  store i32 0, ptr %3, align 4, !tbaa !13
  call void @_ZN6icu_7713DecimalFormat5touchER10UErrorCode(ptr noundef nonnull align 8 dereferenceable(72) %0, ptr noundef nonnull align 4 dereferenceable(4) %3)
  call void @llvm.lifetime.end.p0(i64 4, ptr nonnull %3) #19
  br label %_ZN6icu_7712LocalPointerINS_18CurrencyPluralInfoEED2Ev.exit

15:                                               ; preds = %2
  %16 = icmp eq ptr %1, null
  br i1 %16, label %_ZN6icu_7712LocalPointerINS_18CurrencyPluralInfoEED2Ev.exit, label %17

17:                                               ; preds = %15
  %18 = load ptr, ptr %1, align 8, !tbaa !18
  %19 = getelementptr inbounds nuw i8, ptr %18, i64 8
  %20 = load ptr, ptr %19, align 8
  tail call void %20(ptr noundef nonnull align 8 dereferenceable(36) %1) #19
  br label %_ZN6icu_7712LocalPointerINS_18CurrencyPluralInfoEED2Ev.exit

_ZN6icu_7712LocalPointerINS_18CurrencyPluralInfoEED2Ev.exit: ; preds = %_ZN6icu_7712LocalPointerINS_18CurrencyPluralInfoEE12adoptInsteadEPS1_.exit, %15, %17
  ret void
}